; Function Attrs: mustprogress uwtable
define internal void @_ZN9grpc_core12_GLOBAL__N_118WeightedRoundRobin6Picker21SubchannelCallTracker5StartEv(ptr nocapture noundef nonnull readonly align 8 dereferenceable(32) %this) unnamed_addr #3 align 2 {
entry:
  %child_tracker_ = getelementptr inbounds i8, ptr %this, i64 24
  %0 = load ptr, ptr %child_tracker_, align 8
  %cmp.i.i.not = icmp eq ptr %0, null
  br i1 %cmp.i.i.not, label %if.end, label %if.then

if.then:                                          ; preds = %entry
  %vtable = load ptr, ptr %0, align 8
  %vfn = getelementptr inbounds i8, ptr %vtable, i64 16
  %1 = load ptr, ptr %vfn, align 8
  tail call void %1(ptr noundef nonnull align 8 dereferenceable(8) %0)
  br label %if.end

if.end:                                           ; preds = %if.then, %entry
  ret void
}